target datalayout = "e-m:e-p270:32:32-p271:32:32-p272:64:64-i64:64-i128:128-f80:128-n8:16:32:64-S128"
target triple = "x86_64-pc-linux-gnu"

%struct.job_info = type { ptr, i64, ptr, ptr, i32, ptr, i32, i32, i32, ptr, i32, ptr, i16, ptr, i64, i16, ptr, ptr, ptr, ptr, ptr, ptr, ptr, ptr, i16, i16, i16, double, i16, i32, i32, i32, ptr, ptr, i64, i32, ptr, i32, i64, i64, ptr, ptr, i32, ptr, ptr, ptr, ptr, i64, ptr, i64, ptr, i32, ptr, ptr, i32, i32, ptr, i32, i32, ptr, ptr, i32, i64, ptr, i16, ptr, i32, i32, ptr, ptr, ptr, ptr, ptr, i32, ptr, i16, i16, i16, i16, i16, i32, i32, i32, i16, ptr, ptr, i64, i16, i32, i64, i64, i64, i32, ptr, ptr, i32, ptr, i8, ptr, ptr, i32, i16, i64, i16, ptr, ptr, ptr, ptr, i16, i32, i16, i16, i64, i16, ptr, i32, ptr, ptr, ptr, i16, i64, i64, ptr, i32, i32, i16, ptr, ptr, ptr, ptr, ptr, ptr, ptr, ptr, i32, ptr, i32, ptr, ptr }

; Function Attrs: nounwind uwtable
define dso_local void @slurm_free_job_info_members(ptr noundef %0) #0 {
  %2 = alloca ptr, align 8
  %3 = alloca i32, align 4
  store ptr %0, ptr %2, align 8
  call void @llvm.lifetime.start.p0(i64 4, ptr %3) #11
  %4 = load ptr, ptr %2, align 8
  %5 = icmp ne ptr %4, null
  br i1 %5, label %6, label %171

6:                                                ; preds = %1
  %7 = load ptr, ptr %2, align 8
  %8 = getelementptr inbounds nuw %struct.job_info, ptr %7, i32 0, i32 0
  call void @slurm_xfree(ptr noundef %8)
  %9 = load ptr, ptr %2, align 8
  %10 = getelementptr inbounds nuw %struct.job_info, ptr %9, i32 0, i32 2
  call void @slurm_xfree(ptr noundef %10)
  %11 = load ptr, ptr %2, align 8
  %12 = getelementptr inbounds nuw %struct.job_info, ptr %11, i32 0, i32 3
  call void @slurm_xfree(ptr noundef %12)
  br label %13

13:                                               ; preds = %6
  %14 = load ptr, ptr %2, align 8
  %15 = getelementptr inbounds nuw %struct.job_info, ptr %14, i32 0, i32 5
  %16 = load ptr, ptr %15, align 8
  %17 = icmp ne ptr %16, null
  br i1 %17, label %18, label %21

18:                                               ; preds = %13
  %19 = load ptr, ptr %2, align 8
  %20 = getelementptr inbounds nuw %struct.job_info, ptr %19, i32 0, i32 5
  call void @slurm_bit_free(ptr noundef %20)
  br label %21

21:                                               ; preds = %18, %13
  %22 = load ptr, ptr %2, align 8
  %23 = getelementptr inbounds nuw %struct.job_info, ptr %22, i32 0, i32 5
  store ptr null, ptr %23, align 8
  br label %24

24:                                               ; preds = %21
  br label %25

25:                                               ; preds = %24
  %26 = load ptr, ptr %2, align 8
  %27 = getelementptr inbounds nuw %struct.job_info, ptr %26, i32 0, i32 9
  call void @slurm_xfree(ptr noundef %27)
  %28 = load ptr, ptr %2, align 8
  %29 = getelementptr inbounds nuw %struct.job_info, ptr %28, i32 0, i32 11
  call void @slurm_xfree(ptr noundef %29)
  %30 = load ptr, ptr %2, align 8
  %31 = getelementptr inbounds nuw %struct.job_info, ptr %30, i32 0, i32 13
  call void @slurm_xfree(ptr noundef %31)
  %32 = load ptr, ptr %2, align 8
  %33 = getelementptr inbounds nuw %struct.job_info, ptr %32, i32 0, i32 16
  call void @slurm_xfree(ptr noundef %33)
  %34 = load ptr, ptr %2, align 8
  %35 = getelementptr inbounds nuw %struct.job_info, ptr %34, i32 0, i32 17
  call void @slurm_xfree(ptr noundef %35)
  %36 = load ptr, ptr %2, align 8
  %37 = getelementptr inbounds nuw %struct.job_info, ptr %36, i32 0, i32 18
  call void @slurm_xfree(ptr noundef %37)
  %38 = load ptr, ptr %2, align 8
  %39 = getelementptr inbounds nuw %struct.job_info, ptr %38, i32 0, i32 19
  call void @slurm_xfree(ptr noundef %39)
  %40 = load ptr, ptr %2, align 8
  %41 = getelementptr inbounds nuw %struct.job_info, ptr %40, i32 0, i32 20
  call void @slurm_xfree(ptr noundef %41)
  %42 = load ptr, ptr %2, align 8
  %43 = getelementptr inbounds nuw %struct.job_info, ptr %42, i32 0, i32 21
  call void @slurm_xfree(ptr noundef %43)
  %44 = load ptr, ptr %2, align 8
  %45 = getelementptr inbounds nuw %struct.job_info, ptr %44, i32 0, i32 22
  call void @slurm_xfree(ptr noundef %45)
  %46 = load ptr, ptr %2, align 8
  %47 = getelementptr inbounds nuw %struct.job_info, ptr %46, i32 0, i32 23
  call void @slurm_xfree(ptr noundef %47)
  %48 = load ptr, ptr %2, align 8
  %49 = getelementptr inbounds nuw %struct.job_info, ptr %48, i32 0, i32 32
  call void @slurm_xfree(ptr noundef %49)
  %50 = load ptr, ptr %2, align 8
  %51 = getelementptr inbounds nuw %struct.job_info, ptr %50, i32 0, i32 33
  call void @slurm_xfree(ptr noundef %51)
  %52 = load ptr, ptr %2, align 8
  %53 = getelementptr inbounds nuw %struct.job_info, ptr %52, i32 0, i32 36
  call void @slurm_xfree(ptr noundef %53)
  %54 = load ptr, ptr %2, align 8
  %55 = getelementptr inbounds nuw %struct.job_info, ptr %54, i32 0, i32 40
  call void @slurm_xfree(ptr noundef %55)
  %56 = load ptr, ptr %2, align 8
  %57 = getelementptr inbounds nuw %struct.job_info, ptr %56, i32 0, i32 41
  call void @slurm_xfree(ptr noundef %57)
  %58 = load ptr, ptr %2, align 8
  %59 = getelementptr inbounds nuw %struct.job_info, ptr %58, i32 0, i32 43
  call void @slurm_xfree(ptr noundef %59)
  %60 = load ptr, ptr %2, align 8
  %61 = getelementptr inbounds nuw %struct.job_info, ptr %60, i32 0, i32 44
  call void @slurm_xfree(ptr noundef %61)
  %62 = load ptr, ptr %2, align 8
  %63 = getelementptr inbounds nuw %struct.job_info, ptr %62, i32 0, i32 45
  call void @slurm_xfree(ptr noundef %63)
  %64 = load ptr, ptr %2, align 8
  %65 = getelementptr inbounds nuw %struct.job_info, ptr %64, i32 0, i32 46
  call void @slurm_xfree(ptr noundef %65)
  %66 = load ptr, ptr %2, align 8
  %67 = getelementptr inbounds nuw %struct.job_info, ptr %66, i32 0, i32 48
  call void @slurm_xfree(ptr noundef %67)
  %68 = load ptr, ptr %2, align 8
  %69 = getelementptr inbounds nuw %struct.job_info, ptr %68, i32 0, i32 50
  call void @slurm_xfree(ptr noundef %69)
  %70 = load ptr, ptr %2, align 8
  %71 = getelementptr inbounds nuw %struct.job_info, ptr %70, i32 0, i32 53
  call void @slurm_xfree(ptr noundef %71)
  %72 = load ptr, ptr %2, align 8
  %73 = getelementptr inbounds nuw %struct.job_info, ptr %72, i32 0, i32 52
  %74 = load ptr, ptr %73, align 8
  %75 = icmp ne ptr %74, null
  br i1 %75, label %76, label %96

76:                                               ; preds = %25
  store i32 0, ptr %3, align 4
  br label %77

77:                                               ; preds = %90, %76
  %78 = load i32, ptr %3, align 4
  %79 = load ptr, ptr %2, align 8
  %80 = getelementptr inbounds nuw %struct.job_info, ptr %79, i32 0, i32 51
  %81 = load i32, ptr %80, align 8
  %82 = icmp ult i32 %78, %81
  br i1 %82, label %83, label %93

83:                                               ; preds = %77
  %84 = load ptr, ptr %2, align 8
  %85 = getelementptr inbounds nuw %struct.job_info, ptr %84, i32 0, i32 52
  %86 = load ptr, ptr %85, align 8
  %87 = load i32, ptr %3, align 4
  %88 = sext i32 %87 to i64
  %89 = getelementptr inbounds ptr, ptr %86, i64 %88
  call void @slurm_xfree(ptr noundef %89)
  br label %90

90:                                               ; preds = %83
  %91 = load i32, ptr %3, align 4
  %92 = add nsw i32 %91, 1
  store i32 %92, ptr %3, align 4
  br label %77, !llvm.loop !38

93:                                               ; preds = %77
  %94 = load ptr, ptr %2, align 8
  %95 = getelementptr inbounds nuw %struct.job_info, ptr %94, i32 0, i32 52
  call void @slurm_xfree(ptr noundef %95)
  br label %96

96:                                               ; preds = %93, %25
  %97 = load ptr, ptr %2, align 8
  %98 = getelementptr inbounds nuw %struct.job_info, ptr %97, i32 0, i32 56
  call void @slurm_xfree(ptr noundef %98)
  %99 = load ptr, ptr %2, align 8
  %100 = getelementptr inbounds nuw %struct.job_info, ptr %99, i32 0, i32 60
  call void @slurm_xfree(ptr noundef %100)
  %101 = load ptr, ptr %2, align 8
  %102 = getelementptr inbounds nuw %struct.job_info, ptr %101, i32 0, i32 63
  call void @slurm_xfree(ptr noundef %102)
  %103 = load ptr, ptr %2, align 8
  %104 = getelementptr inbounds nuw %struct.job_info, ptr %103, i32 0, i32 65
  call void @slurm_xfree(ptr noundef %104)
  %105 = load ptr, ptr %2, align 8
  %106 = getelementptr inbounds nuw %struct.job_info, ptr %105, i32 0, i32 68
  call void @slurm_xfree(ptr noundef %106)
  %107 = load ptr, ptr %2, align 8
  %108 = getelementptr inbounds nuw %struct.job_info, ptr %107, i32 0, i32 69
  call void @slurm_xfree(ptr noundef %108)
  %109 = load ptr, ptr %2, align 8
  %110 = getelementptr inbounds nuw %struct.job_info, ptr %109, i32 0, i32 70
  call void @slurm_xfree(ptr noundef %110)
  %111 = load ptr, ptr %2, align 8
  %112 = getelementptr inbounds nuw %struct.job_info, ptr %111, i32 0, i32 71
  call void @slurm_xfree(ptr noundef %112)
  %113 = load ptr, ptr %2, align 8
  %114 = getelementptr inbounds nuw %struct.job_info, ptr %113, i32 0, i32 74
  call void @slurm_xfree(ptr noundef %114)
  %115 = load ptr, ptr %2, align 8
  %116 = getelementptr inbounds nuw %struct.job_info, ptr %115, i32 0, i32 72
  call void @slurm_xfree(ptr noundef %116)
  %117 = load ptr, ptr %2, align 8
  %118 = getelementptr inbounds nuw %struct.job_info, ptr %117, i32 0, i32 106
  call void @slurm_xfree(ptr noundef %118)
  %119 = load ptr, ptr %2, align 8
  %120 = getelementptr inbounds nuw %struct.job_info, ptr %119, i32 0, i32 84
  call void @slurm_xfree(ptr noundef %120)
  %121 = load ptr, ptr %2, align 8
  %122 = getelementptr inbounds nuw %struct.job_info, ptr %121, i32 0, i32 93
  call void @slurm_xfree(ptr noundef %122)
  %123 = load ptr, ptr %2, align 8
  %124 = getelementptr inbounds nuw %struct.job_info, ptr %123, i32 0, i32 94
  call void @slurm_xfree(ptr noundef %124)
  %125 = load ptr, ptr %2, align 8
  %126 = getelementptr inbounds nuw %struct.job_info, ptr %125, i32 0, i32 85
  call void @slurm_xfree(ptr noundef %126)
  %127 = load ptr, ptr %2, align 8
  %128 = getelementptr inbounds nuw %struct.job_info, ptr %127, i32 0, i32 96
  call void @slurm_xfree(ptr noundef %128)
  %129 = load ptr, ptr %2, align 8
  %130 = getelementptr inbounds nuw %struct.job_info, ptr %129, i32 0, i32 99
  call void @slurm_xfree(ptr noundef %130)
  %131 = load ptr, ptr %2, align 8
  %132 = getelementptr inbounds nuw %struct.job_info, ptr %131, i32 0, i32 98
  call void @slurm_xfree(ptr noundef %132)
  %133 = load ptr, ptr %2, align 8
  %134 = getelementptr inbounds nuw %struct.job_info, ptr %133, i32 0, i32 104
  call void @slurm_xfree(ptr noundef %134)
  %135 = load ptr, ptr %2, align 8
  %136 = getelementptr inbounds nuw %struct.job_info, ptr %135, i32 0, i32 59
  call void @free_job_resources(ptr noundef %136)
  %137 = load ptr, ptr %2, align 8
  %138 = getelementptr inbounds nuw %struct.job_info, ptr %137, i32 0, i32 107
  call void @slurm_xfree(ptr noundef %138)
  %139 = load ptr, ptr %2, align 8
  %140 = getelementptr inbounds nuw %struct.job_info, ptr %139, i32 0, i32 114
  call void @slurm_xfree(ptr noundef %140)
  %141 = load ptr, ptr %2, align 8
  %142 = getelementptr inbounds nuw %struct.job_info, ptr %141, i32 0, i32 116
  call void @slurm_xfree(ptr noundef %142)
  %143 = load ptr, ptr %2, align 8
  %144 = getelementptr inbounds nuw %struct.job_info, ptr %143, i32 0, i32 117
  call void @slurm_xfree(ptr noundef %144)
  %145 = load ptr, ptr %2, align 8
  %146 = getelementptr inbounds nuw %struct.job_info, ptr %145, i32 0, i32 118
  call void @slurm_xfree(ptr noundef %146)
  %147 = load ptr, ptr %2, align 8
  %148 = getelementptr inbounds nuw %struct.job_info, ptr %147, i32 0, i32 122
  call void @slurm_xfree(ptr noundef %148)
  %149 = load ptr, ptr %2, align 8
  %150 = getelementptr inbounds nuw %struct.job_info, ptr %149, i32 0, i32 133
  call void @slurm_xfree(ptr noundef %150)
  %151 = load ptr, ptr %2, align 8
  %152 = getelementptr inbounds nuw %struct.job_info, ptr %151, i32 0, i32 126
  call void @slurm_xfree(ptr noundef %152)
  %153 = load ptr, ptr %2, align 8
  %154 = getelementptr inbounds nuw %struct.job_info, ptr %153, i32 0, i32 127
  call void @slurm_xfree(ptr noundef %154)
  %155 = load ptr, ptr %2, align 8
  %156 = getelementptr inbounds nuw %struct.job_info, ptr %155, i32 0, i32 128
  call void @slurm_xfree(ptr noundef %156)
  %157 = load ptr, ptr %2, align 8
  %158 = getelementptr inbounds nuw %struct.job_info, ptr %157, i32 0, i32 129
  call void @slurm_xfree(ptr noundef %158)
  %159 = load ptr, ptr %2, align 8
  %160 = getelementptr inbounds nuw %struct.job_info, ptr %159, i32 0, i32 130
  call void @slurm_xfree(ptr noundef %160)
  %161 = load ptr, ptr %2, align 8
  %162 = getelementptr inbounds nuw %struct.job_info, ptr %161, i32 0, i32 131
  call void @slurm_xfree(ptr noundef %162)
  %163 = load ptr, ptr %2, align 8
  %164 = getelementptr inbounds nuw %struct.job_info, ptr %163, i32 0, i32 132
  call void @slurm_xfree(ptr noundef %164)
  %165 = load ptr, ptr %2, align 8
  %166 = getelementptr inbounds nuw %struct.job_info, ptr %165, i32 0, i32 135
  call void @slurm_xfree(ptr noundef %166)
  %167 = load ptr, ptr %2, align 8
  %168 = getelementptr inbounds nuw %struct.job_info, ptr %167, i32 0, i32 137
  call void @slurm_xfree(ptr noundef %168)
  %169 = load ptr, ptr %2, align 8
  %170 = getelementptr inbounds nuw %struct.job_info, ptr %169, i32 0, i32 138
  call void @slurm_xfree(ptr noundef %170)
  br label %171

171:                                              ; preds = %96, %1
  call void @llvm.lifetime.end.p0(i64 4, ptr %3) #11
  ret void
}