; Function Attrs: nounwind uwtable
define dso_local void @slurm_free_job_info_members(ptr noundef %0) local_unnamed_addr #1 {
  %.not = icmp eq ptr %0, null
  br i1 %.not, label %79, label %2

2:                                                ; preds = %1
  tail call void @slurm_xfree(ptr noundef nonnull %0) #24
  %3 = getelementptr inbounds nuw i8, ptr %0, i64 16
  tail call void @slurm_xfree(ptr noundef nonnull %3) #24
  %4 = getelementptr inbounds nuw i8, ptr %0, i64 24
  tail call void @slurm_xfree(ptr noundef nonnull %4) #24
  %5 = getelementptr inbounds nuw i8, ptr %0, i64 40
  %6 = load ptr, ptr %5, align 8
  %.not74 = icmp eq ptr %6, null
  br i1 %.not74, label %8, label %7

7:                                                ; preds = %2
  tail call void @slurm_bit_free(ptr noundef nonnull %5) #24
  br label %8

8:                                                ; preds = %7, %2
  store ptr null, ptr %5, align 8
  %9 = getelementptr inbounds nuw i8, ptr %0, i64 64
  tail call void @slurm_xfree(ptr noundef nonnull %9) #24
  %10 = getelementptr inbounds nuw i8, ptr %0, i64 80
  tail call void @slurm_xfree(ptr noundef nonnull %10) #24
  %11 = getelementptr inbounds nuw i8, ptr %0, i64 96
  tail call void @slurm_xfree(ptr noundef nonnull %11) #24
  %12 = getelementptr inbounds nuw i8, ptr %0, i64 120
  tail call void @slurm_xfree(ptr noundef nonnull %12) #24
  %13 = getelementptr inbounds nuw i8, ptr %0, i64 128
  tail call void @slurm_xfree(ptr noundef nonnull %13) #24
  %14 = getelementptr inbounds nuw i8, ptr %0, i64 136
  tail call void @slurm_xfree(ptr noundef nonnull %14) #24
  %15 = getelementptr inbounds nuw i8, ptr %0, i64 144
  tail call void @slurm_xfree(ptr noundef nonnull %15) #24
  %16 = getelementptr inbounds nuw i8, ptr %0, i64 152
  tail call void @slurm_xfree(ptr noundef nonnull %16) #24
  %17 = getelementptr inbounds nuw i8, ptr %0, i64 160
  tail call void @slurm_xfree(ptr noundef nonnull %17) #24
  %18 = getelementptr inbounds nuw i8, ptr %0, i64 168
  tail call void @slurm_xfree(ptr noundef nonnull %18) #24
  %19 = getelementptr inbounds nuw i8, ptr %0, i64 176
  tail call void @slurm_xfree(ptr noundef nonnull %19) #24
  %20 = getelementptr inbounds nuw i8, ptr %0, i64 216
  tail call void @slurm_xfree(ptr noundef nonnull %20) #24
  %21 = getelementptr inbounds nuw i8, ptr %0, i64 224
  tail call void @slurm_xfree(ptr noundef nonnull %21) #24
  %22 = getelementptr inbounds nuw i8, ptr %0, i64 248
  tail call void @slurm_xfree(ptr noundef nonnull %22) #24
  %23 = getelementptr inbounds nuw i8, ptr %0, i64 280
  tail call void @slurm_xfree(ptr noundef nonnull %23) #24
  %24 = getelementptr inbounds nuw i8, ptr %0, i64 288
  tail call void @slurm_xfree(ptr noundef nonnull %24) #24
  %25 = getelementptr inbounds nuw i8, ptr %0, i64 304
  tail call void @slurm_xfree(ptr noundef nonnull %25) #24
  %26 = getelementptr inbounds nuw i8, ptr %0, i64 312
  tail call void @slurm_xfree(ptr noundef nonnull %26) #24
  %27 = getelementptr inbounds nuw i8, ptr %0, i64 320
  tail call void @slurm_xfree(ptr noundef nonnull %27) #24
  %28 = getelementptr inbounds nuw i8, ptr %0, i64 328
  tail call void @slurm_xfree(ptr noundef nonnull %28) #24
  %29 = getelementptr inbounds nuw i8, ptr %0, i64 344
  tail call void @slurm_xfree(ptr noundef nonnull %29) #24
  %30 = getelementptr inbounds nuw i8, ptr %0, i64 360
  tail call void @slurm_xfree(ptr noundef nonnull %30) #24
  %31 = getelementptr inbounds nuw i8, ptr %0, i64 384
  tail call void @slurm_xfree(ptr noundef nonnull %31) #24
  %32 = getelementptr inbounds nuw i8, ptr %0, i64 376
  %33 = load ptr, ptr %32, align 8
  %.not75 = icmp eq ptr %33, null
  br i1 %.not75, label %41, label %.preheader

.preheader:                                       ; preds = %8
  %34 = getelementptr inbounds nuw i8, ptr %0, i64 368
  %35 = load i32, ptr %34, align 8
  %.not77 = icmp eq i32 %35, 0
  br i1 %.not77, label %._crit_edge, label %.lr.ph

.lr.ph:                                           ; preds = %.preheader, %.lr.ph
  %indvars.iv = phi i64 [ %indvars.iv.next, %.lr.ph ], [ 0, %.preheader ]
  %36 = load ptr, ptr %32, align 8
  %37 = getelementptr inbounds nuw ptr, ptr %36, i64 %indvars.iv
  tail call void @slurm_xfree(ptr noundef %37) #24
  %indvars.iv.next = add nuw nsw i64 %indvars.iv, 1
  %38 = load i32, ptr %34, align 8
  %39 = zext i32 %38 to i64
  %40 = icmp samesign ult i64 %indvars.iv.next, %39
  br i1 %40, label %.lr.ph, label %._crit_edge, !llvm.loop !39

._crit_edge:                                      ; preds = %.lr.ph, %.preheader
  tail call void @slurm_xfree(ptr noundef nonnull %32) #24
  br label %41

41:                                               ; preds = %._crit_edge, %8
  %42 = getelementptr inbounds nuw i8, ptr %0, i64 400
  tail call void @slurm_xfree(ptr noundef nonnull %42) #24
  %43 = getelementptr inbounds nuw i8, ptr %0, i64 424
  tail call void @slurm_xfree(ptr noundef nonnull %43) #24
  %44 = getelementptr inbounds nuw i8, ptr %0, i64 448
  tail call void @slurm_xfree(ptr noundef nonnull %44) #24
  %45 = getelementptr inbounds nuw i8, ptr %0, i64 464
  tail call void @slurm_xfree(ptr noundef nonnull %45) #24
  %46 = getelementptr inbounds nuw i8, ptr %0, i64 480
  tail call void @slurm_xfree(ptr noundef nonnull %46) #24
  %47 = getelementptr inbounds nuw i8, ptr %0, i64 488
  tail call void @slurm_xfree(ptr noundef nonnull %47) #24
  %48 = getelementptr inbounds nuw i8, ptr %0, i64 496
  tail call void @slurm_xfree(ptr noundef nonnull %48) #24
  %49 = getelementptr inbounds nuw i8, ptr %0, i64 504
  tail call void @slurm_xfree(ptr noundef nonnull %49) #24
  %50 = getelementptr inbounds nuw i8, ptr %0, i64 528
  tail call void @slurm_xfree(ptr noundef nonnull %50) #24
  %51 = getelementptr inbounds nuw i8, ptr %0, i64 512
  tail call void @slurm_xfree(ptr noundef nonnull %51) #24
  %52 = getelementptr inbounds nuw i8, ptr %0, i64 728
  tail call void @slurm_xfree(ptr noundef nonnull %52) #24
  %53 = getelementptr inbounds nuw i8, ptr %0, i64 568
  tail call void @slurm_xfree(ptr noundef nonnull %53) #24
  %54 = getelementptr inbounds nuw i8, ptr %0, i64 632
  tail call void @slurm_xfree(ptr noundef nonnull %54) #24
  %55 = getelementptr inbounds nuw i8, ptr %0, i64 640
  tail call void @slurm_xfree(ptr noundef nonnull %55) #24
  %56 = getelementptr inbounds nuw i8, ptr %0, i64 576
  tail call void @slurm_xfree(ptr noundef nonnull %56) #24
  %57 = getelementptr inbounds nuw i8, ptr %0, i64 656
  tail call void @slurm_xfree(ptr noundef nonnull %57) #24
  %58 = getelementptr inbounds nuw i8, ptr %0, i64 680
  tail call void @slurm_xfree(ptr noundef nonnull %58) #24
  %59 = getelementptr inbounds nuw i8, ptr %0, i64 672
  tail call void @slurm_xfree(ptr noundef nonnull %59) #24
  %60 = getelementptr inbounds nuw i8, ptr %0, i64 712
  tail call void @slurm_xfree(ptr noundef nonnull %60) #24
  %61 = getelementptr inbounds nuw i8, ptr %0, i64 416
  tail call void @free_job_resources(ptr noundef nonnull %61) #24
  %62 = getelementptr inbounds nuw i8, ptr %0, i64 736
  tail call void @slurm_xfree(ptr noundef nonnull %62) #24
  %63 = getelementptr inbounds nuw i8, ptr %0, i64 776
  tail call void @slurm_xfree(ptr noundef nonnull %63) #24
  %64 = getelementptr inbounds nuw i8, ptr %0, i64 792
  tail call void @slurm_xfree(ptr noundef nonnull %64) #24
  %65 = getelementptr inbounds nuw i8, ptr %0, i64 800
  tail call void @slurm_xfree(ptr noundef nonnull %65) #24
  %66 = getelementptr inbounds nuw i8, ptr %0, i64 808
  tail call void @slurm_xfree(ptr noundef nonnull %66) #24
  %67 = getelementptr inbounds nuw i8, ptr %0, i64 840
  tail call void @slurm_xfree(ptr noundef nonnull %67) #24
  %68 = getelementptr inbounds nuw i8, ptr %0, i64 920
  tail call void @slurm_xfree(ptr noundef nonnull %68) #24
  %69 = getelementptr inbounds nuw i8, ptr %0, i64 864
  tail call void @slurm_xfree(ptr noundef nonnull %69) #24
  %70 = getelementptr inbounds nuw i8, ptr %0, i64 872
  tail call void @slurm_xfree(ptr noundef nonnull %70) #24
  %71 = getelementptr inbounds nuw i8, ptr %0, i64 880
  tail call void @slurm_xfree(ptr noundef nonnull %71) #24
  %72 = getelementptr inbounds nuw i8, ptr %0, i64 888
  tail call void @slurm_xfree(ptr noundef nonnull %72) #24
  %73 = getelementptr inbounds nuw i8, ptr %0, i64 896
  tail call void @slurm_xfree(ptr noundef nonnull %73) #24
  %74 = getelementptr inbounds nuw i8, ptr %0, i64 904
  tail call void @slurm_xfree(ptr noundef nonnull %74) #24
  %75 = getelementptr inbounds nuw i8, ptr %0, i64 912
  tail call void @slurm_xfree(ptr noundef nonnull %75) #24
  %76 = getelementptr inbounds nuw i8, ptr %0, i64 936
  tail call void @slurm_xfree(ptr noundef nonnull %76) #24
  %77 = getelementptr inbounds nuw i8, ptr %0, i64 952
  tail call void @slurm_xfree(ptr noundef nonnull %77) #24
  %78 = getelementptr inbounds nuw i8, ptr %0, i64 960
  tail call void @slurm_xfree(ptr noundef nonnull %78) #24
  br label %79

79:                                               ; preds = %41, %1
  ret void
}